(dp0
S'OriginalConfig'
p1
ccopy_reg
_reconstructor
p2
(cWMCore.Configuration
Configuration
p3
c__builtin__
object
p4
Ntp5
Rp6
(dp7
S'Site'
p8
g2
(cWMCore.Configuration
ConfigSection
p9
g4
Ntp10
Rp11
(dp12
S'_internal_skipChecks'
p13
I00
sS'_internal_documentation'
p14
S''
p15
sS'_internal_settings'
p16
c__builtin__
set
p17
((lp18
S'storageSite'
p19
atp20
Rp21
sS'_internal_name'
p22
g8
sS'_internal_docstrings'
p23
(dp24
sS'_internal_children'
p25
g17
((lp26
tp27
Rp28
sg19
S'T3_US_NotreDame'
p29
sS'_internal_parent_ref'
p30
NsbsS'Data'
p31
g2
(g9
g4
Ntp32
Rp33
(dp34
S'inputDataset'
p35
S'/HAHMHToAA_AToGG_MA-50GeV_TuneCP5_PSweights_13TeV-madgraph_pythia8/RunIIAutumn18MiniAOD-102X_upgrade2018_realistic_v15-v2/MINIAODSIM'
p36
sg13
I00
sS'splitting'
p37
S'Automatic'
p38
sg14
g15
sg16
g17
((lp39
g35
aS'publication'
p40
ag37
aS'inputDBS'
p41
aS'lumiMask'
p42
aS'outLFNDirBase'
p43
aS'totalUnits'
p44
atp45
Rp46
sg22
g31
sg41
S'global'
p47
sg23
(dp48
sg25
g17
((lp49
tp50
Rp51
sg40
I00
sg43
S'/store/user/castells/outputs/Signal_MC_2018'
p52
sg30
Nsg42
g15
sg44
I-1
sbsS'_internal_sections'
p53
(lp54
S'General'
p55
aS'JobType'
p56
ag31
ag8
asg56
g2
(g9
g4
Ntp57
Rp58
(dp59
S'numCores'
p60
I1
sg13
I00
sg14
g15
sg16
g17
((lp61
S'priority'
p62
aS'psetName'
p63
aS'pluginName'
p64
ag60
aS'maxMemoryMB'
p65
atp66
Rp67
sg22
g56
sg23
(dp68
sg62
I30
sg64
S'Analysis'
p69
sg25
g17
((lp70
tp71
Rp72
sg63
S'HAHMHToAA_AToGG_MA_50GeV_TuneCP5_PSweights_13TeV_madgraph_pythia8_2018_cfg.py'
p73
sg30
Nsg65
I2500
sbsg55
g2
(g9
g4
Ntp74
Rp75
(dp76
S'transferLogs'
p77
I01
sg13
I00
sg14
g15
sg16
g17
((lp78
g77
aS'transferOutputs'
p79
aS'workArea'
p80
aS'requestName'
p81
atp82
Rp83
sg22
g55
sg23
(dp84
sg79
I01
sg25
g17
((lp85
tp86
Rp87
sg81
S'MNConversion_HAHMHToAA_AToGG_MA_50GeV_TuneCP5_PSweights_13TeV_madgraph_pythia8_2018'
p88
sg30
Nsg80
S'MNConversion_crab'
p89
sbsbsS'voGroup'
p90
g15
sS'Server'
p91
S'cmsweb.cern.ch'
p92
sS'instance'
p93
S'prod'
p94
sS'RequestName'
p95
V240115_130931:castells_crab_MNConversion_HAHMHToAA_AToGG_MA_50GeV_TuneCP5_PSweights_13TeV_madgraph_pythia8_2018
p96
sS'voRole'
p97
S'NULL'
p98
sS'Port'
p99
g15
s.